target datalayout = "e-m:e-p270:32:32-p271:32:32-p272:64:64-i64:64-i128:128-f80:128-n8:16:32:64-S128"
target triple = "x86_64-pc-linux-gnu"

@.str.3 = private unnamed_addr constant [14 x i8] c"xlogarchive.c\00", align 1
@.str.13 = private unnamed_addr constant [7 x i8] c".ready\00", align 1
@.str.14 = private unnamed_addr constant [2 x i8] c"w\00", align 1
@.str.15 = private unnamed_addr constant [46 x i8] c"could not create archive status file \22%s\22: %m\00", align 1
@__func__.XLogArchiveNotify = private unnamed_addr constant [18 x i8] c"XLogArchiveNotify\00", align 1
@.str.16 = private unnamed_addr constant [45 x i8] c"could not write archive status file \22%s\22: %m\00", align 1
@IsUnderPostmaster = external global i8, align 1
@.str.19 = private unnamed_addr constant [27 x i8] c"pg_wal/archive_status/%s%s\00", align 1
@.str.20 = private unnamed_addr constant [17 x i8] c"0123456789ABCDEF\00", align 1
@.str.21 = private unnamed_addr constant [9 x i8] c".history\00", align 1

; Function Attrs: inlinehint nounwind uwtable
define internal zeroext i1 @IsTLHistoryFileName(ptr noundef %0) #7 {
  %2 = alloca ptr, align 8
  store ptr %0, ptr %2, align 8
  %3 = load ptr, ptr %2, align 8
  %4 = call i64 @strlen(ptr noundef %3) #11
  %5 = icmp eq i64 %4, 16
  br i1 %5, label %6, label %15

6:                                                ; preds = %1
  %7 = load ptr, ptr %2, align 8
  %8 = call i64 @strspn(ptr noundef %7, ptr noundef @.str.20) #11
  %9 = icmp eq i64 %8, 8
  br i1 %9, label %10, label %15

10:                                               ; preds = %6
  %11 = load ptr, ptr %2, align 8
  %12 = getelementptr inbounds i8, ptr %11, i64 8
  %13 = call i32 @strcmp(ptr noundef %12, ptr noundef @.str.21) #11
  %14 = icmp eq i32 %13, 0
  br label %15

15:                                               ; preds = %10, %6, %1
  %16 = phi i1 [ false, %6 ], [ false, %1 ], [ %14, %10 ]
  ret i1 %16
}

; Function Attrs: inlinehint nounwind uwtable
define internal void @StatusFilePath(ptr noundef %0, ptr noundef %1, ptr noundef %2) #7 {
  %4 = alloca ptr, align 8
  %5 = alloca ptr, align 8
  %6 = alloca ptr, align 8
  store ptr %0, ptr %4, align 8
  store ptr %1, ptr %5, align 8
  store ptr %2, ptr %6, align 8
  %7 = load ptr, ptr %4, align 8
  %8 = load ptr, ptr %5, align 8
  %9 = load ptr, ptr %6, align 8
  %10 = call i32 (ptr, i64, ptr, ...) @pg_snprintf(ptr noundef %7, i64 noundef 1024, ptr noundef @.str.19, ptr noundef %8, ptr noundef %9)
  ret void
}

; Function Attrs: nounwind uwtable
define dso_local void @XLogArchiveNotify(ptr noundef %0) #0 {
  %2 = alloca ptr, align 8
  %3 = alloca [1024 x i8], align 16
  %4 = alloca ptr, align 8
  %5 = alloca i32, align 4
  store ptr %0, ptr %2, align 8
  call void @llvm.lifetime.start.p0(i64 1024, ptr %3) #10
  call void @llvm.lifetime.start.p0(i64 8, ptr %4) #10
  %6 = getelementptr inbounds [1024 x i8], ptr %3, i64 0, i64 0
  %7 = load ptr, ptr %2, align 8
  call void @StatusFilePath(ptr noundef %6, ptr noundef %7, ptr noundef @.str.13)
  %8 = getelementptr inbounds [1024 x i8], ptr %3, i64 0, i64 0
  %9 = call ptr @AllocateFile(ptr noundef %8, ptr noundef @.str.14)
  store ptr %9, ptr %4, align 8
  %10 = load ptr, ptr %4, align 8
  %11 = icmp eq ptr %10, null
  br i1 %11, label %12, label %25

12:                                               ; preds = %1
  br label %13

13:                                               ; preds = %12
  br i1 false, label %14, label %16

14:                                               ; preds = %13
  %15 = call zeroext i1 @errstart_cold(i32 noundef 15, ptr noundef null) #13
  br i1 %15, label %18, label %22

16:                                               ; preds = %13
  %17 = call zeroext i1 @errstart(i32 noundef 15, ptr noundef null)
  br i1 %17, label %18, label %22

18:                                               ; preds = %16, %14
  %19 = call i32 @errcode_for_file_access()
  %20 = getelementptr inbounds [1024 x i8], ptr %3, i64 0, i64 0
  %21 = call i32 (ptr, ...) @errmsg(ptr noundef @.str.15, ptr noundef %20)
  call void @errfinish(ptr noundef @.str.3, i32 noundef 457, ptr noundef @__func__.XLogArchiveNotify)
  br label %22

22:                                               ; preds = %18, %16, %14
  br label %23

23:                                               ; preds = %22
  br label %24

24:                                               ; preds = %23
  store i32 1, ptr %5, align 4
  br label %51

25:                                               ; preds = %1
  %26 = load ptr, ptr %4, align 8
  %27 = call i32 @FreeFile(ptr noundef %26)
  %28 = icmp ne i32 %27, 0
  br i1 %28, label %29, label %42

29:                                               ; preds = %25
  br label %30

30:                                               ; preds = %29
  br i1 false, label %31, label %33

31:                                               ; preds = %30
  %32 = call zeroext i1 @errstart_cold(i32 noundef 15, ptr noundef null) #13
  br i1 %32, label %35, label %39

33:                                               ; preds = %30
  %34 = call zeroext i1 @errstart(i32 noundef 15, ptr noundef null)
  br i1 %34, label %35, label %39

35:                                               ; preds = %33, %31
  %36 = call i32 @errcode_for_file_access()
  %37 = getelementptr inbounds [1024 x i8], ptr %3, i64 0, i64 0
  %38 = call i32 (ptr, ...) @errmsg(ptr noundef @.str.16, ptr noundef %37)
  call void @errfinish(ptr noundef @.str.3, i32 noundef 465, ptr noundef @__func__.XLogArchiveNotify)
  br label %39

39:                                               ; preds = %35, %33, %31
  br label %40

40:                                               ; preds = %39
  br label %41

41:                                               ; preds = %40
  store i32 1, ptr %5, align 4
  br label %51

42:                                               ; preds = %25
  %43 = load ptr, ptr %2, align 8
  %44 = call zeroext i1 @IsTLHistoryFileName(ptr noundef %43)
  br i1 %44, label %45, label %46

45:                                               ; preds = %42
  call void @PgArchForceDirScan()
  br label %46

46:                                               ; preds = %45, %42
  %47 = load i8, ptr @IsUnderPostmaster, align 1, !range !4, !noundef !5
  %48 = trunc i8 %47 to i1
  br i1 %48, label %49, label %50

49:                                               ; preds = %46
  call void @PgArchWakeup()
  br label %50

50:                                               ; preds = %49, %46
  store i32 0, ptr %5, align 4
  br label %51

51:                                               ; preds = %50, %41, %24
  call void @llvm.lifetime.end.p0(i64 8, ptr %4) #10
  call void @llvm.lifetime.end.p0(i64 1024, ptr %3) #10
  %52 = load i32, ptr %5, align 4
  switch i32 %52, label %54 [
    i32 0, label %53
    i32 1, label %53
  ]

53:                                               ; preds = %51, %51
  ret void

54:                                               ; preds = %51
  unreachable
}