; Function Attrs: nounwind uwtable
define dso_local void @XLogArchiveNotify(ptr noundef %0) local_unnamed_addr #0 {
  %2 = alloca [1024 x i8], align 16
  call void @llvm.lifetime.start.p0(i64 1024, ptr nonnull %2) #11
  %3 = call i32 (ptr, i64, ptr, ...) @pg_snprintf(ptr noundef nonnull %2, i64 noundef 1024, ptr noundef nonnull @.str.19, ptr noundef %0, ptr noundef nonnull @.str.13) #11
  %4 = call ptr @AllocateFile(ptr noundef nonnull %2, ptr noundef nonnull @.str.14) #11
  %5 = icmp eq ptr %4, null
  br i1 %5, label %6, label %11

6:                                                ; preds = %1
  %7 = call zeroext i1 @errstart(i32 noundef 15, ptr noundef null) #11
  br i1 %7, label %8, label %31

8:                                                ; preds = %6
  %9 = call i32 @errcode_for_file_access() #11
  %10 = call i32 (ptr, ...) @errmsg(ptr noundef nonnull @.str.15, ptr noundef nonnull %2) #11
  call void @errfinish(ptr noundef nonnull @.str.3, i32 noundef 457, ptr noundef nonnull @__func__.XLogArchiveNotify) #11
  br label %31

11:                                               ; preds = %1
  %12 = call i32 @FreeFile(ptr noundef nonnull %4) #11
  %.not = icmp eq i32 %12, 0
  br i1 %.not, label %18, label %13

13:                                               ; preds = %11
  %14 = call zeroext i1 @errstart(i32 noundef 15, ptr noundef null) #11
  br i1 %14, label %15, label %31

15:                                               ; preds = %13
  %16 = call i32 @errcode_for_file_access() #11
  %17 = call i32 (ptr, ...) @errmsg(ptr noundef nonnull @.str.16, ptr noundef nonnull %2) #11
  call void @errfinish(ptr noundef nonnull @.str.3, i32 noundef 465, ptr noundef nonnull @__func__.XLogArchiveNotify) #11
  br label %31

18:                                               ; preds = %11
  %19 = call i64 @strlen(ptr noundef nonnull readonly dereferenceable(1) %0) #15
  %20 = icmp eq i64 %19, 16
  br i1 %20, label %21, label %IsTLHistoryFileName.exit.thread

21:                                               ; preds = %18
  %22 = call i64 @strspn(ptr noundef nonnull readonly %0, ptr noundef nonnull @.str.20) #15
  %23 = icmp eq i64 %22, 8
  br i1 %23, label %IsTLHistoryFileName.exit, label %IsTLHistoryFileName.exit.thread

IsTLHistoryFileName.exit:                         ; preds = %21
  %24 = getelementptr inbounds nuw i8, ptr %0, i64 8
  %25 = call i32 @strcmp(ptr noundef nonnull readonly dereferenceable(1) %24, ptr noundef nonnull dereferenceable(9) @.str.21) #15
  %26 = icmp eq i32 %25, 0
  br i1 %26, label %27, label %IsTLHistoryFileName.exit.thread

27:                                               ; preds = %IsTLHistoryFileName.exit
  call void @PgArchForceDirScan() #11
  br label %IsTLHistoryFileName.exit.thread

IsTLHistoryFileName.exit.thread:                  ; preds = %18, %21, %27, %IsTLHistoryFileName.exit
  %28 = load i8, ptr @IsUnderPostmaster, align 1, !range !4, !noundef !5
  %29 = trunc nuw i8 %28 to i1
  br i1 %29, label %30, label %31

30:                                               ; preds = %IsTLHistoryFileName.exit.thread
  call void @PgArchWakeup() #11
  br label %31

31:                                               ; preds = %IsTLHistoryFileName.exit.thread, %30, %13, %15, %6, %8
  call void @llvm.lifetime.end.p0(i64 1024, ptr nonnull %2) #11
  ret void
}